; ModuleID = '19/1604.c'
source_filename = "19/1604.c"
target datalayout = "e-m:e-p270:32:32-p271:32:32-p272:64:64-i64:64-f80:128-n8:16:32:64-S128"
target triple = "x86_64-pc-linux-gnu"

@.str = private unnamed_addr constant [3 x i8] c"%s\00", align 1
@.str.1 = private unnamed_addr constant [4 x i8] c"%s \00", align 1

; Function Attrs: noinline nounwind uwtable
define dso_local void @main() #0 {
  %1 = alloca i32, align 4
  %2 = alloca i32, align 4
  %3 = alloca i32, align 4
  %4 = alloca i8, align 1
  %5 = alloca i8, align 1
  %6 = alloca i8, align 1
  %7 = alloca i8, align 1
  %8 = alloca [100 x i8], align 16
  %9 = alloca [100 x [100 x i8]], align 16
  %10 = alloca [100 x i8], align 16
  %11 = alloca [100 x i8], align 16
  store i32 0, i32* %3, align 4
  store i8 0, i8* %7, align 1
  %12 = getelementptr inbounds [100 x i8], [100 x i8]* %8, i64 0, i64 0
  %13 = call i32 (i8*, ...) bitcast (i32 (...)* @gets to i32 (i8*, ...)*)(i8* %12)
  %14 = call i32 (i8*, ...) @__isoc99_scanf(i8* getelementptr inbounds ([3 x i8], [3 x i8]* @.str, i64 0, i64 0), [100 x i8]* %10)
  %15 = call i32 (i8*, ...) @__isoc99_scanf(i8* getelementptr inbounds ([3 x i8], [3 x i8]* @.str, i64 0, i64 0), [100 x i8]* %11)
  %16 = getelementptr inbounds [100 x i8], [100 x i8]* %8, i64 0, i64 0
  %17 = call i64 @strlen(i8* %16) #4
  %18 = trunc i64 %17 to i32
  store i32 %18, i32* %1, align 4
  store i32 0, i32* %2, align 4
  br label %19

19:                                               ; preds = %47, %0
  %20 = load i32, i32* %2, align 4
  %21 = load i32, i32* %1, align 4
  %22 = icmp slt i32 %20, %21
  br i1 %22, label %23, label %50

23:                                               ; preds = %19
  %24 = load i32, i32* %2, align 4
  %25 = sext i32 %24 to i64
  %26 = getelementptr inbounds [100 x i8], [100 x i8]* %8, i64 0, i64 %25
  %27 = load i8, i8* %26, align 1
  %28 = sext i8 %27 to i32
  %29 = icmp eq i32 %28, 32
  br i1 %29, label %30, label %33

30:                                               ; preds = %23
  %31 = load i32, i32* %3, align 4
  %32 = add nsw i32 %31, 1
  store i32 %32, i32* %3, align 4
  store i8 0, i8* %7, align 1
  br label %46

33:                                               ; preds = %23
  %34 = load i32, i32* %2, align 4
  %35 = sext i32 %34 to i64
  %36 = getelementptr inbounds [100 x i8], [100 x i8]* %8, i64 0, i64 %35
  %37 = load i8, i8* %36, align 1
  %38 = load i32, i32* %3, align 4
  %39 = sext i32 %38 to i64
  %40 = getelementptr inbounds [100 x [100 x i8]], [100 x [100 x i8]]* %9, i64 0, i64 %39
  %41 = load i8, i8* %7, align 1
  %42 = sext i8 %41 to i64
  %43 = getelementptr inbounds [100 x i8], [100 x i8]* %40, i64 0, i64 %42
  store i8 %37, i8* %43, align 1
  %44 = load i8, i8* %7, align 1
  %45 = add i8 %44, 1
  store i8 %45, i8* %7, align 1
  br label %46

46:                                               ; preds = %33, %30
  br label %47

47:                                               ; preds = %46
  %48 = load i32, i32* %2, align 4
  %49 = add nsw i32 %48, 1
  store i32 %49, i32* %2, align 4
  br label %19

50:                                               ; preds = %19
  store i32 0, i32* %2, align 4
  br label %51

51:                                               ; preds = %72, %50
  %52 = load i32, i32* %2, align 4
  %53 = load i32, i32* %3, align 4
  %54 = add nsw i32 %53, 1
  %55 = icmp slt i32 %52, %54
  br i1 %55, label %56, label %75

56:                                               ; preds = %51
  %57 = load i32, i32* %2, align 4
  %58 = sext i32 %57 to i64
  %59 = getelementptr inbounds [100 x [100 x i8]], [100 x [100 x i8]]* %9, i64 0, i64 %58
  %60 = getelementptr inbounds [100 x i8], [100 x i8]* %59, i64 0, i64 0
  %61 = getelementptr inbounds [100 x i8], [100 x i8]* %10, i64 0, i64 0
  %62 = call i32 @strcmp(i8* %60, i8* %61) #4
  %63 = icmp eq i32 %62, 0
  br i1 %63, label %64, label %71

64:                                               ; preds = %56
  %65 = load i32, i32* %2, align 4
  %66 = sext i32 %65 to i64
  %67 = getelementptr inbounds [100 x [100 x i8]], [100 x [100 x i8]]* %9, i64 0, i64 %66
  %68 = getelementptr inbounds [100 x i8], [100 x i8]* %67, i64 0, i64 0
  %69 = getelementptr inbounds [100 x i8], [100 x i8]* %11, i64 0, i64 0
  %70 = call i8* @strcpy(i8* %68, i8* %69) #5
  br label %71

71:                                               ; preds = %64, %56
  br label %72

72:                                               ; preds = %71
  %73 = load i32, i32* %2, align 4
  %74 = add nsw i32 %73, 1
  store i32 %74, i32* %2, align 4
  br label %51

75:                                               ; preds = %51
  store i32 0, i32* %2, align 4
  br label %76

76:                                               ; preds = %86, %75
  %77 = load i32, i32* %2, align 4
  %78 = load i32, i32* %3, align 4
  %79 = icmp slt i32 %77, %78
  br i1 %79, label %80, label %89

80:                                               ; preds = %76
  %81 = load i32, i32* %2, align 4
  %82 = sext i32 %81 to i64
  %83 = getelementptr inbounds [100 x [100 x i8]], [100 x [100 x i8]]* %9, i64 0, i64 %82
  %84 = getelementptr inbounds [100 x i8], [100 x i8]* %83, i64 0, i64 0
  %85 = call i32 (i8*, ...) @printf(i8* getelementptr inbounds ([4 x i8], [4 x i8]* @.str.1, i64 0, i64 0), i8* %84)
  br label %86

86:                                               ; preds = %80
  %87 = load i32, i32* %2, align 4
  %88 = add nsw i32 %87, 1
  store i32 %88, i32* %2, align 4
  br label %76

89:                                               ; preds = %76
  %90 = load i32, i32* %2, align 4
  %91 = sext i32 %90 to i64
  %92 = getelementptr inbounds [100 x [100 x i8]], [100 x [100 x i8]]* %9, i64 0, i64 %91
  %93 = getelementptr inbounds [100 x i8], [100 x i8]* %92, i64 0, i64 0
  %94 = call i32 (i8*, ...) @printf(i8* getelementptr inbounds ([3 x i8], [3 x i8]* @.str, i64 0, i64 0), i8* %93)
  ret void
}

declare dso_local i32 @gets(...) #1

declare dso_local i32 @__isoc99_scanf(i8*, ...) #1

; Function Attrs: nounwind readonly
declare dso_local i64 @strlen(i8*) #2

; Function Attrs: nounwind readonly
declare dso_local i32 @strcmp(i8*, i8*) #2

; Function Attrs: nounwind
declare dso_local i8* @strcpy(i8*, i8*) #3

declare dso_local i32 @printf(i8*, ...) #1


!llvm.module.flags = !{!0}
!llvm.ident = !{!1}

!0 = !{i32 1, !"wchar_size", i32 4}
!1 = !{!"clang version 10.0.0-4ubuntu1 "}
